target datalayout = "e-m:e-p270:32:32-p271:32:32-p272:64:64-i64:64-i128:128-f80:128-n8:16:32:64-S128"
target triple = "x86_64-pc-linux-gnu"

%"struct.vcpkg::msg::MessageT" = type { i64 }
%"class.std::__cxx11::basic_string" = type { %"struct.std::__cxx11::basic_string<char>::_Alloc_hider", i64, %union.anon }
%"struct.std::__cxx11::basic_string<char>::_Alloc_hider" = type { ptr }
%union.anon = type { i64, [8 x i8] }
%"struct.vcpkg::StringView" = type { ptr, i64 }
%"struct.vcpkg::LocalizedString" = type { %"class.std::__cxx11::basic_string" }

@_ZN5vcpkg20msgChecksFailedCheckE = external global %"struct.vcpkg::msg::MessageT", align 8
@_ZN5vcpkg30msgInternalErrorMessageContactE = external global %"struct.vcpkg::msg::MessageT", align 8

; Function Attrs: mustprogress uwtable
define linkonce_odr dso_local noundef nonnull align 8 dereferenceable(32) ptr @_ZNR5vcpkg15LocalizedString6appendIJEJEEERS0_NS_3msg8MessageTIJDpT_EEEDpNS3_6TagArgINS_8identityIS5_E4typeET0_EE(ptr noundef nonnull align 8 dereferenceable(32) %0, i64 %1) #0 comdat align 2 {
  %3 = alloca %"struct.vcpkg::msg::MessageT", align 8
  %4 = alloca ptr, align 8
  %5 = alloca %"struct.vcpkg::msg::MessageT", align 8
  %6 = getelementptr inbounds nuw %"struct.vcpkg::msg::MessageT", ptr %3, i32 0, i32 0
  store i64 %1, ptr %6, align 8
  store ptr %0, ptr %4, align 8, !tbaa !31
  %7 = load ptr, ptr %4, align 8
  call void @llvm.memcpy.p0.p0.i64(ptr align 8 %5, ptr align 8 %3, i64 8, i1 false), !tbaa.struct !28
  %8 = getelementptr inbounds nuw %"struct.vcpkg::msg::MessageT", ptr %5, i32 0, i32 0
  %9 = load i64, ptr %8, align 8
  call void @_ZN5vcpkg3msg9format_toIJEJEEEvRNS_15LocalizedStringENS0_8MessageTIJDpT_EEEDpNS0_6TagArgINS_8identityIS5_E4typeET0_EE(ptr noundef nonnull align 8 dereferenceable(32) %7, i64 %9)
  ret ptr %7
}

; Function Attrs: mustprogress uwtable
define linkonce_odr dso_local noundef nonnull align 8 dereferenceable(32) ptr @_ZNO5vcpkg15LocalizedString6appendIJEJEEEOS0_NS_3msg8MessageTIJDpT_EEEDpNS3_6TagArgINS_8identityIS5_E4typeET0_EE(ptr noundef nonnull align 8 dereferenceable(32) %0, i64 %1) #0 comdat align 2 {
  %3 = alloca %"struct.vcpkg::msg::MessageT", align 8
  %4 = alloca ptr, align 8
  %5 = alloca %"struct.vcpkg::msg::MessageT", align 8
  %6 = getelementptr inbounds nuw %"struct.vcpkg::msg::MessageT", ptr %3, i32 0, i32 0
  store i64 %1, ptr %6, align 8
  store ptr %0, ptr %4, align 8, !tbaa !31
  %7 = load ptr, ptr %4, align 8
  call void @llvm.memcpy.p0.p0.i64(ptr align 8 %5, ptr align 8 %3, i64 8, i1 false), !tbaa.struct !28
  %8 = getelementptr inbounds nuw %"struct.vcpkg::msg::MessageT", ptr %5, i32 0, i32 0
  %9 = load i64, ptr %8, align 8
  %10 = call noundef nonnull align 8 dereferenceable(32) ptr @_ZNR5vcpkg15LocalizedString6appendIJEJEEERS0_NS_3msg8MessageTIJDpT_EEEDpNS3_6TagArgINS_8identityIS5_E4typeET0_EE(ptr noundef nonnull align 8 dereferenceable(32) %7, i64 %9)
  ret ptr %10
}

; Function Attrs: mustprogress uwtable
define dso_local void @_ZN5vcpkg6Checks10check_exitERKNS_8LineInfoEb(ptr noundef nonnull align 8 dereferenceable(16) %0, i1 noundef zeroext %1) #0 personality ptr @__gxx_personality_v0 {
  %3 = alloca ptr, align 8
  %4 = alloca i8, align 1
  %5 = alloca %"struct.vcpkg::StringView", align 8
  %6 = alloca %"struct.vcpkg::LocalizedString", align 8
  %7 = alloca %"struct.vcpkg::LocalizedString", align 8
  %8 = alloca ptr, align 8
  %9 = alloca i32, align 4
  %10 = alloca %"struct.vcpkg::msg::MessageT", align 8
  %11 = alloca %"struct.vcpkg::msg::MessageT", align 8
  store ptr %0, ptr %3, align 8, !tbaa !4
  %12 = zext i1 %1 to i8
  store i8 %12, ptr %4, align 1, !tbaa !22
  %13 = load i8, ptr %4, align 1, !tbaa !22, !range !26, !noundef !27
  %14 = trunc i8 %13 to i1
  br i1 %14, label %52, label %15

15:                                               ; preds = %2
  call void @llvm.lifetime.start.p0(i64 32, ptr %6) #18
  call void @_ZN5vcpkg21internal_error_prefixEv(ptr dead_on_unwind writable sret(%"struct.vcpkg::LocalizedString") align 8 %6)
  call void @llvm.lifetime.start.p0(i64 32, ptr %7) #18
  %16 = load ptr, ptr %3, align 8, !tbaa !4
  invoke void @_ZN12_GLOBAL__N_125locale_invariant_lineinfoERKN5vcpkg8LineInfoE(ptr dead_on_unwind writable sret(%"struct.vcpkg::LocalizedString") align 8 %7, ptr noundef nonnull align 8 dereferenceable(16) %16)
          to label %17 unwind label %43

17:                                               ; preds = %15
  %18 = invoke noundef nonnull align 8 dereferenceable(32) ptr @_ZNO5vcpkg15LocalizedString6appendERKS0_(ptr noundef nonnull align 8 dereferenceable(32) %6, ptr noundef nonnull align 8 dereferenceable(32) %7)
          to label %19 unwind label %47

19:                                               ; preds = %17
  call void @llvm.memcpy.p0.p0.i64(ptr align 8 %10, ptr align 8 @_ZN5vcpkg20msgChecksFailedCheckE, i64 8, i1 false), !tbaa.struct !28
  %20 = getelementptr inbounds nuw %"struct.vcpkg::msg::MessageT", ptr %10, i32 0, i32 0
  %21 = load i64, ptr %20, align 8
  %22 = invoke noundef nonnull align 8 dereferenceable(32) ptr @_ZNO5vcpkg15LocalizedString6appendIJEJEEEOS0_NS_3msg8MessageTIJDpT_EEEDpNS3_6TagArgINS_8identityIS5_E4typeET0_EE(ptr noundef nonnull align 8 dereferenceable(32) %18, i64 %21)
          to label %23 unwind label %47

23:                                               ; preds = %19
  %24 = invoke noundef nonnull align 8 dereferenceable(32) ptr @_ZNO5vcpkg15LocalizedString10append_rawEc(ptr noundef nonnull align 8 dereferenceable(32) %22, i8 noundef signext 10)
          to label %25 unwind label %47

25:                                               ; preds = %23
  call void @llvm.memcpy.p0.p0.i64(ptr align 8 %11, ptr align 8 @_ZN5vcpkg30msgInternalErrorMessageContactE, i64 8, i1 false), !tbaa.struct !28
  %26 = getelementptr inbounds nuw %"struct.vcpkg::msg::MessageT", ptr %11, i32 0, i32 0
  %27 = load i64, ptr %26, align 8
  %28 = invoke noundef nonnull align 8 dereferenceable(32) ptr @_ZNO5vcpkg15LocalizedString6appendIJEJEEEOS0_NS_3msg8MessageTIJDpT_EEEDpNS3_6TagArgINS_8identityIS5_E4typeET0_EE(ptr noundef nonnull align 8 dereferenceable(32) %24, i64 %27)
          to label %29 unwind label %47

29:                                               ; preds = %25
  %30 = invoke noundef nonnull align 8 dereferenceable(32) ptr @_ZNO5vcpkg15LocalizedString10append_rawEc(ptr noundef nonnull align 8 dereferenceable(32) %28, i8 noundef signext 10)
          to label %31 unwind label %47

31:                                               ; preds = %29
  %32 = call { ptr, i64 } @_ZNK5vcpkg15LocalizedStringcvNS_10StringViewEEv(ptr noundef nonnull align 8 dereferenceable(32) %30) #18
  %33 = getelementptr inbounds nuw { ptr, i64 }, ptr %5, i32 0, i32 0
  %34 = extractvalue { ptr, i64 } %32, 0
  store ptr %34, ptr %33, align 8
  %35 = getelementptr inbounds nuw { ptr, i64 }, ptr %5, i32 0, i32 1
  %36 = extractvalue { ptr, i64 } %32, 1
  store i64 %36, ptr %35, align 8
  %37 = getelementptr inbounds nuw { ptr, i64 }, ptr %5, i32 0, i32 0
  %38 = load ptr, ptr %37, align 8
  %39 = getelementptr inbounds nuw { ptr, i64 }, ptr %5, i32 0, i32 1
  %40 = load i64, ptr %39, align 8
  invoke void @_ZN5vcpkg3msg32write_unlocalized_text_to_stderrENS_5ColorENS_10StringViewE(i8 noundef signext 49, ptr %38, i64 %40)
          to label %41 unwind label %47

41:                                               ; preds = %31
  call void @_ZN5vcpkg15LocalizedStringD2Ev(ptr noundef nonnull align 8 dereferenceable(32) %7) #18
  call void @llvm.lifetime.end.p0(i64 32, ptr %7) #18
  call void @_ZN5vcpkg15LocalizedStringD2Ev(ptr noundef nonnull align 8 dereferenceable(32) %6) #18
  call void @llvm.lifetime.end.p0(i64 32, ptr %6) #18
  %42 = load ptr, ptr %3, align 8, !tbaa !4
  call void @_ZN5vcpkg6Checks9exit_failERKNS_8LineInfoE(ptr noundef nonnull align 8 dereferenceable(16) %42) #20
  unreachable

43:                                               ; preds = %15
  %44 = landingpad { ptr, i32 }
          cleanup
  %45 = extractvalue { ptr, i32 } %44, 0
  store ptr %45, ptr %8, align 8
  %46 = extractvalue { ptr, i32 } %44, 1
  store i32 %46, ptr %9, align 4
  br label %51

47:                                               ; preds = %31, %29, %25, %23, %19, %17
  %48 = landingpad { ptr, i32 }
          cleanup
  %49 = extractvalue { ptr, i32 } %48, 0
  store ptr %49, ptr %8, align 8
  %50 = extractvalue { ptr, i32 } %48, 1
  store i32 %50, ptr %9, align 4
  call void @_ZN5vcpkg15LocalizedStringD2Ev(ptr noundef nonnull align 8 dereferenceable(32) %7) #18
  br label %51

51:                                               ; preds = %47, %43
  call void @llvm.lifetime.end.p0(i64 32, ptr %7) #18
  call void @_ZN5vcpkg15LocalizedStringD2Ev(ptr noundef nonnull align 8 dereferenceable(32) %6) #18
  call void @llvm.lifetime.end.p0(i64 32, ptr %6) #18
  br label %53

52:                                               ; preds = %2
  ret void

53:                                               ; preds = %51
  %54 = load ptr, ptr %8, align 8
  %55 = load i32, ptr %9, align 4
  %56 = insertvalue { ptr, i32 } poison, ptr %54, 0
  %57 = insertvalue { ptr, i32 } %56, i32 %55, 1
  resume { ptr, i32 } %57
}